target datalayout = "e-m:e-p270:32:32-p271:32:32-p272:64:64-i64:64-i128:128-f80:128-n8:16:32:64-S128"
target triple = "x86_64-pc-linux-gnu"

%struct.yyguts_t = type { ptr, ptr, ptr, i64, i64, ptr, i8, i64, i64, ptr, i32, i32, i32, i32, i32, ptr, i32, ptr, i32, i32, ptr, i32, i32 }
%struct.yy_buffer_state = type { ptr, ptr, ptr, i64, i64, i32, i32, i32, i32, i32, i32, i32 }

; Function Attrs: mustprogress nounwind uwtable
define void @_Z15_gmx_sel_yyfreePvS_(ptr noundef %0, ptr noundef %1) #1 {
  %3 = alloca ptr, align 8
  %4 = alloca ptr, align 8
  %5 = alloca ptr, align 8
  store ptr %0, ptr %3, align 8
  store ptr %1, ptr %4, align 8
  %6 = load ptr, ptr %4, align 8
  store ptr %6, ptr %5, align 8
  %7 = load ptr, ptr %3, align 8
  call void @free(ptr noundef %7) #11
  ret void
}

; Function Attrs: mustprogress uwtable
define void @_Z25_gmx_sel_yy_delete_bufferP15yy_buffer_statePv(ptr noundef %0, ptr noundef %1) #0 {
  %3 = alloca ptr, align 8
  %4 = alloca ptr, align 8
  %5 = alloca ptr, align 8
  store ptr %0, ptr %3, align 8
  store ptr %1, ptr %4, align 8
  %6 = load ptr, ptr %4, align 8
  store ptr %6, ptr %5, align 8
  %7 = load ptr, ptr %3, align 8
  %8 = icmp ne ptr %7, null
  br i1 %8, label %10, label %9

9:                                                ; preds = %2
  br label %50

10:                                               ; preds = %2
  %11 = load ptr, ptr %3, align 8
  %12 = load ptr, ptr %5, align 8
  %13 = getelementptr inbounds %struct.yyguts_t, ptr %12, i32 0, i32 5
  %14 = load ptr, ptr %13, align 8
  %15 = icmp ne ptr %14, null
  br i1 %15, label %16, label %25

16:                                               ; preds = %10
  %17 = load ptr, ptr %5, align 8
  %18 = getelementptr inbounds %struct.yyguts_t, ptr %17, i32 0, i32 5
  %19 = load ptr, ptr %18, align 8
  %20 = load ptr, ptr %5, align 8
  %21 = getelementptr inbounds %struct.yyguts_t, ptr %20, i32 0, i32 3
  %22 = load i64, ptr %21, align 8
  %23 = getelementptr inbounds ptr, ptr %19, i64 %22
  %24 = load ptr, ptr %23, align 8
  br label %26

25:                                               ; preds = %10
  br label %26

26:                                               ; preds = %25, %16
  %27 = phi ptr [ %24, %16 ], [ null, %25 ]
  %28 = icmp eq ptr %11, %27
  br i1 %28, label %29, label %37

29:                                               ; preds = %26
  %30 = load ptr, ptr %5, align 8
  %31 = getelementptr inbounds %struct.yyguts_t, ptr %30, i32 0, i32 5
  %32 = load ptr, ptr %31, align 8
  %33 = load ptr, ptr %5, align 8
  %34 = getelementptr inbounds %struct.yyguts_t, ptr %33, i32 0, i32 3
  %35 = load i64, ptr %34, align 8
  %36 = getelementptr inbounds ptr, ptr %32, i64 %35
  store ptr null, ptr %36, align 8
  br label %37

37:                                               ; preds = %29, %26
  %38 = load ptr, ptr %3, align 8
  %39 = getelementptr inbounds %struct.yy_buffer_state, ptr %38, i32 0, i32 5
  %40 = load i32, ptr %39, align 8
  %41 = icmp ne i32 %40, 0
  br i1 %41, label %42, label %47

42:                                               ; preds = %37
  %43 = load ptr, ptr %3, align 8
  %44 = getelementptr inbounds %struct.yy_buffer_state, ptr %43, i32 0, i32 1
  %45 = load ptr, ptr %44, align 8
  %46 = load ptr, ptr %4, align 8
  call void @_Z15_gmx_sel_yyfreePvS_(ptr noundef %45, ptr noundef %46)
  br label %47

47:                                               ; preds = %42, %37
  %48 = load ptr, ptr %3, align 8
  %49 = load ptr, ptr %4, align 8
  call void @_Z15_gmx_sel_yyfreePvS_(ptr noundef %48, ptr noundef %49)
  br label %50

50:                                               ; preds = %47, %9
  ret void
}